TN:
SF:/home/mike/Documents/practice/tests/Template.cpp
FN:8,_ZN32TEST_GROUP_CppUTestGroupTemplateD0Ev
FN:8,_ZN32TEST_GROUP_CppUTestGroupTemplateC2Ev
FN:8,_ZN32TEST_GROUP_CppUTestGroupTemplateD2Ev
FN:12,_ZN28TEST_Template_FirstTest_Test8testBodyEv
FN:12,_ZN28TEST_Template_FirstTest_TestD2Ev
FN:12,_ZN33TEST_Template_FirstTest_TestShell10createTestEv
FN:12,_ZN33TEST_Template_FirstTest_TestShellD0Ev
FN:12,_ZN28TEST_Template_FirstTest_TestC2Ev
FN:12,_ZN33TEST_Template_FirstTest_TestShellC2Ev
FN:12,_ZN33TEST_Template_FirstTest_TestShellD2Ev
FN:12,_ZN28TEST_Template_FirstTest_TestD0Ev
FN:15,_GLOBAL__sub_I_externTestGroupTemplate
FN:15,_Z41__static_initialization_and_destruction_0ii
FNDA:0,_ZN32TEST_GROUP_CppUTestGroupTemplateD0Ev
FNDA:1,_ZN32TEST_GROUP_CppUTestGroupTemplateD2Ev
FNDA:1,_ZN32TEST_GROUP_CppUTestGroupTemplateC2Ev
FNDA:0,_ZN33TEST_Template_FirstTest_TestShellD0Ev
FNDA:1,_ZN33TEST_Template_FirstTest_TestShellD2Ev
FNDA:1,_ZN28TEST_Template_FirstTest_TestD0Ev
FNDA:1,_ZN28TEST_Template_FirstTest_TestD2Ev
FNDA:1,_ZN28TEST_Template_FirstTest_Test8testBodyEv
FNDA:1,_ZN33TEST_Template_FirstTest_TestShellC2Ev
FNDA:1,_ZN33TEST_Template_FirstTest_TestShell10createTestEv
FNDA:1,_ZN28TEST_Template_FirstTest_TestC2Ev
FNDA:1,_GLOBAL__sub_I_externTestGroupTemplate
FNDA:1,_Z41__static_initialization_and_destruction_0ii
FNF:13
FNH:11
BRDA:12,13,13,1
BRDA:12,13,14,0
BRDA:14,0,3,1
BRDA:14,0,4,0
BRDA:15,3,1,1
BRDA:15,3,2,0
BRDA:15,4,3,1
BRDA:15,4,4,0
BRF:8
BRH:4
DA:8,4
DA:12,13
DA:14,1
DA:15,5
LF:4
LH:4
end_of_record
SF:/home/mike/Documents/practice/tools/cpputest-3.8/include/CppUTest/Utest.h
FN:62,_ZN14TestTerminatorC2Ev
FN:69,_ZN20NormalTestTerminatorC2Ev
FNDA:0,_ZN14TestTerminatorC2Ev
FNDA:0,_ZN20NormalTestTerminatorC2Ev
FNF:2
FNH:0
DA:62,0
DA:69,0
LF:2
LH:0
end_of_record
TN:
SF:/home/mike/Documents/practice/tests/AllTests.cpp
FN:2,main
FNDA:1,main
FNF:1
FNH:1
DA:2,1
DA:4,1
LF:2
LH:2
end_of_record
TN:
SF:/home/mike/Documents/practice/tests/SampleTests.cpp
FN:8,_ZN30TEST_GROUP_CppUTestGroupSampleC2Ev
FN:8,_ZN30TEST_GROUP_CppUTestGroupSampleD0Ev
FN:8,_ZN30TEST_GROUP_CppUTestGroupSampleD2Ev
FN:12,_ZN26TEST_Sample_FirstTest_Test8testBodyEv
FN:12,_ZN26TEST_Sample_FirstTest_TestD0Ev
FN:12,_ZN31TEST_Sample_FirstTest_TestShellD0Ev
FN:12,_ZN31TEST_Sample_FirstTest_TestShellC2Ev
FN:12,_ZN31TEST_Sample_FirstTest_TestShell10createTestEv
FN:12,_ZN26TEST_Sample_FirstTest_TestD2Ev
FN:12,_ZN31TEST_Sample_FirstTest_TestShellD2Ev
FN:12,_ZN26TEST_Sample_FirstTest_TestC2Ev
FN:16,_Z41__static_initialization_and_destruction_0ii
FN:16,_GLOBAL__sub_I_externTestGroupSample
FNDA:0,_ZN30TEST_GROUP_CppUTestGroupSampleD0Ev
FNDA:1,_ZN30TEST_GROUP_CppUTestGroupSampleD2Ev
FNDA:1,_ZN30TEST_GROUP_CppUTestGroupSampleC2Ev
FNDA:0,_ZN31TEST_Sample_FirstTest_TestShellD0Ev
FNDA:1,_ZN31TEST_Sample_FirstTest_TestShellD2Ev
FNDA:1,_ZN26TEST_Sample_FirstTest_TestD0Ev
FNDA:1,_ZN26TEST_Sample_FirstTest_TestD2Ev
FNDA:1,_ZN26TEST_Sample_FirstTest_Test8testBodyEv
FNDA:1,_ZN31TEST_Sample_FirstTest_TestShellC2Ev
FNDA:1,_ZN31TEST_Sample_FirstTest_TestShell10createTestEv
FNDA:1,_ZN26TEST_Sample_FirstTest_TestC2Ev
FNDA:1,_GLOBAL__sub_I_externTestGroupSample
FNDA:1,_Z41__static_initialization_and_destruction_0ii
FNF:13
FNH:11
BRDA:12,13,13,1
BRDA:12,13,14,0
BRDA:14,0,1,1
BRDA:14,0,2,0
BRDA:15,0,0,0
BRDA:15,0,1,1
BRDA:15,1,3,-
BRDA:15,1,4,-
BRDA:15,2,7,-
BRDA:15,2,8,-
BRDA:15,3,10,-
BRDA:15,3,11,-
BRDA:15,4,13,-
BRDA:15,4,14,-
BRDA:15,5,16,-
BRDA:15,5,17,-
BRDA:15,6,19,-
BRDA:15,6,20,-
BRDA:15,8,25,1
BRDA:15,8,26,0
BRDA:15,9,29,1
BRDA:15,9,30,0
BRDA:16,3,1,1
BRDA:16,3,2,0
BRDA:16,4,3,1
BRDA:16,4,4,0
BRF:26
BRH:7
DA:8,4
DA:12,13
DA:14,1
DA:15,1
DA:16,5
LF:5
LH:5
end_of_record
SF:/home/mike/Documents/practice/tools/cpputest-3.8/include/CppUTest/Utest.h
FN:62,_ZN14TestTerminatorC2Ev
FN:69,_ZN20NormalTestTerminatorC2Ev
FNDA:0,_ZN14TestTerminatorC2Ev
FNDA:0,_ZN20NormalTestTerminatorC2Ev
FNF:2
FNH:0
DA:62,0
DA:69,0
LF:2
LH:0
end_of_record
TN:
SF:/home/mike/Documents/practice/tests/ShapeTests.cpp
FN:8,_ZN29TEST_GROUP_CppUTestGroupShapeC2Ev
FN:8,_ZN29TEST_GROUP_CppUTestGroupShapeD0Ev
FN:8,_ZN29TEST_GROUP_CppUTestGroupShapeD2Ev
FN:12,_ZN32TEST_Shape_CreatesLine_TestShellD0Ev
FN:12,_ZN32TEST_Shape_CreatesLine_TestShellC2Ev
FN:12,_ZN27TEST_Shape_CreatesLine_TestC2Ev
FN:12,_ZN32TEST_Shape_CreatesLine_TestShellD2Ev
FN:12,_ZN27TEST_Shape_CreatesLine_Test8testBodyEv
FN:12,_ZN27TEST_Shape_CreatesLine_TestD2Ev
FN:12,_ZN32TEST_Shape_CreatesLine_TestShell10createTestEv
FN:12,_ZN27TEST_Shape_CreatesLine_TestD0Ev
FN:17,_Z41__static_initialization_and_destruction_0ii
FN:17,_GLOBAL__sub_I_externTestGroupShape
FNDA:0,_ZN29TEST_GROUP_CppUTestGroupShapeD0Ev
FNDA:1,_ZN29TEST_GROUP_CppUTestGroupShapeD2Ev
FNDA:1,_ZN29TEST_GROUP_CppUTestGroupShapeC2Ev
FNDA:0,_ZN32TEST_Shape_CreatesLine_TestShellD0Ev
FNDA:1,_ZN32TEST_Shape_CreatesLine_TestShellD2Ev
FNDA:1,_ZN27TEST_Shape_CreatesLine_TestD0Ev
FNDA:1,_ZN27TEST_Shape_CreatesLine_TestD2Ev
FNDA:1,_ZN27TEST_Shape_CreatesLine_Test8testBodyEv
FNDA:1,_ZN32TEST_Shape_CreatesLine_TestShellC2Ev
FNDA:1,_ZN32TEST_Shape_CreatesLine_TestShell10createTestEv
FNDA:1,_ZN27TEST_Shape_CreatesLine_TestC2Ev
FNDA:1,_GLOBAL__sub_I_externTestGroupShape
FNDA:1,_Z41__static_initialization_and_destruction_0ii
FNF:13
FNH:11
BRDA:12,13,13,1
BRDA:12,13,14,0
BRDA:15,0,1,1
BRDA:15,0,2,0
BRDA:16,0,0,1
BRDA:16,0,1,0
BRDA:16,1,3,1
BRDA:16,1,4,0
BRDA:16,2,7,1
BRDA:16,2,8,0
BRDA:16,3,10,1
BRDA:16,3,11,0
BRDA:16,4,13,1
BRDA:16,4,14,0
BRDA:16,5,16,1
BRDA:16,5,17,0
BRDA:16,6,19,0
BRDA:16,6,20,1
BRDA:16,8,25,-
BRDA:16,8,26,-
BRDA:16,9,29,-
BRDA:16,9,30,-
BRDA:17,3,1,1
BRDA:17,3,2,0
BRDA:17,4,3,1
BRDA:17,4,4,0
BRF:26
BRH:11
DA:8,4
DA:12,13
DA:15,1
DA:16,1
DA:17,4
LF:5
LH:5
end_of_record
SF:/home/mike/Documents/practice/tools/cpputest-3.8/include/CppUTest/Utest.h
FN:62,_ZN14TestTerminatorC2Ev
FN:69,_ZN20NormalTestTerminatorC2Ev
FNDA:3,_ZN14TestTerminatorC2Ev
FNDA:3,_ZN20NormalTestTerminatorC2Ev
FNF:2
FNH:2
DA:62,3
DA:69,6
LF:2
LH:2
end_of_record
TN:
SF:/home/mike/Documents/practice/mocks/SampleStub.c
FN:3,test
FNDA:1,test
FNF:1
FNH:1
DA:3,1
DA:5,1
LF:2
LH:2
end_of_record
TN:
SF:/home/mike/Documents/practice/src/Shapes.c
FN:3,Init_Shape
FNDA:1,Init_Shape
FNF:1
FNH:1
DA:3,1
DA:5,1
DA:6,1
LF:3
LH:3
end_of_record
